target datalayout = "e-m:e-p270:32:32-p271:32:32-p272:64:64-i64:64-i128:128-f80:128-n8:16:32:64-S128"
target triple = "x86_64-pc-linux-gnu"

; Function Attrs: inlinehint mustprogress nounwind uwtable
define internal noundef signext i8 @_ZL9U_FAILURE10UErrorCode(i32 noundef %0) #1 {
  %2 = alloca i32, align 4
  store i32 %0, ptr %2, align 4, !tbaa !15
  %3 = load i32, ptr %2, align 4, !tbaa !15
  %4 = icmp sgt i32 %3, 0
  %5 = zext i1 %4 to i8
  ret i8 %5
}

; Function Attrs: mustprogress uwtable
define ptr @ubrk_safeClone_77(ptr noundef %0, ptr noundef %1, ptr noundef %2, ptr noundef %3) #0 {
  %5 = alloca ptr, align 8
  %6 = alloca ptr, align 8
  %7 = alloca ptr, align 8
  %8 = alloca ptr, align 8
  %9 = alloca ptr, align 8
  %10 = alloca i32, align 4
  %11 = alloca i32, align 4
  %12 = alloca ptr, align 8
  store ptr %0, ptr %6, align 8, !tbaa !19
  store ptr %1, ptr %7, align 8, !tbaa !14
  store ptr %2, ptr %8, align 8, !tbaa !33
  store ptr %3, ptr %9, align 8, !tbaa !14
  %13 = load ptr, ptr %9, align 8, !tbaa !14
  %14 = icmp eq ptr %13, null
  br i1 %14, label %20, label %15

15:                                               ; preds = %4
  %16 = load ptr, ptr %9, align 8, !tbaa !14
  %17 = load i32, ptr %16, align 4, !tbaa !15
  %18 = call noundef signext i8 @_ZL9U_FAILURE10UErrorCode(i32 noundef %17)
  %19 = icmp ne i8 %18, 0
  br i1 %19, label %20, label %21

20:                                               ; preds = %15, %4
  store ptr null, ptr %5, align 8
  br label %58

21:                                               ; preds = %15
  %22 = load ptr, ptr %6, align 8, !tbaa !19
  %23 = icmp eq ptr %22, null
  br i1 %23, label %24, label %26

24:                                               ; preds = %21
  %25 = load ptr, ptr %9, align 8, !tbaa !14
  store i32 1, ptr %25, align 4, !tbaa !15
  store ptr null, ptr %5, align 8
  br label %58

26:                                               ; preds = %21
  %27 = load ptr, ptr %8, align 8, !tbaa !33
  %28 = icmp ne ptr %27, null
  br i1 %28, label %29, label %40

29:                                               ; preds = %26
  call void @llvm.lifetime.start.p0(i64 4, ptr %10) #9
  %30 = load ptr, ptr %8, align 8, !tbaa !33
  %31 = load i32, ptr %30, align 4, !tbaa !12
  store i32 %31, ptr %10, align 4, !tbaa !12
  %32 = load ptr, ptr %8, align 8, !tbaa !33
  store i32 1, ptr %32, align 4, !tbaa !12
  %33 = load i32, ptr %10, align 4, !tbaa !12
  %34 = icmp eq i32 %33, 0
  br i1 %34, label %35, label %36

35:                                               ; preds = %29
  store ptr null, ptr %5, align 8
  store i32 1, ptr %11, align 4
  br label %37

36:                                               ; preds = %29
  store i32 0, ptr %11, align 4
  br label %37

37:                                               ; preds = %36, %35
  call void @llvm.lifetime.end.p0(i64 4, ptr %10) #9
  %38 = load i32, ptr %11, align 4
  switch i32 %38, label %60 [
    i32 0, label %39
    i32 1, label %58
  ]

39:                                               ; preds = %37
  br label %40

40:                                               ; preds = %39, %26
  call void @llvm.lifetime.start.p0(i64 8, ptr %12) #9
  %41 = load ptr, ptr %6, align 8, !tbaa !19
  %42 = load ptr, ptr %41, align 8, !tbaa !21
  %43 = getelementptr inbounds ptr, ptr %42, i64 4
  %44 = load ptr, ptr %43, align 8
  %45 = call noundef ptr %44(ptr noundef nonnull align 8 dereferenceable(32) %41)
  store ptr %45, ptr %12, align 8, !tbaa !17
  %46 = load ptr, ptr %12, align 8, !tbaa !17
  %47 = icmp eq ptr %46, null
  br i1 %47, label %48, label %50

48:                                               ; preds = %40
  %49 = load ptr, ptr %9, align 8, !tbaa !14
  store i32 7, ptr %49, align 4, !tbaa !15
  br label %56

50:                                               ; preds = %40
  %51 = load ptr, ptr %8, align 8, !tbaa !33
  %52 = icmp ne ptr %51, null
  br i1 %52, label %53, label %55

53:                                               ; preds = %50
  %54 = load ptr, ptr %9, align 8, !tbaa !14
  store i32 -126, ptr %54, align 4, !tbaa !15
  br label %55

55:                                               ; preds = %53, %50
  br label %56

56:                                               ; preds = %55, %48
  %57 = load ptr, ptr %12, align 8, !tbaa !17
  store ptr %57, ptr %5, align 8
  store i32 1, ptr %11, align 4
  call void @llvm.lifetime.end.p0(i64 8, ptr %12) #9
  br label %58

58:                                               ; preds = %56, %37, %24, %20
  %59 = load ptr, ptr %5, align 8
  ret ptr %59

60:                                               ; preds = %37
  unreachable
}

; Function Attrs: mustprogress uwtable
define ptr @ubrk_clone_77(ptr noundef %0, ptr noundef %1) #0 {
  %3 = alloca ptr, align 8
  %4 = alloca ptr, align 8
  store ptr %0, ptr %3, align 8, !tbaa !19
  store ptr %1, ptr %4, align 8, !tbaa !14
  %5 = load ptr, ptr %3, align 8, !tbaa !19
  %6 = load ptr, ptr %4, align 8, !tbaa !14
  %7 = call ptr @ubrk_safeClone_77(ptr noundef %5, ptr noundef null, ptr noundef null, ptr noundef %6)
  ret ptr %7
}