; Function Attrs: mustprogress uwtable
define noundef ptr @ubrk_clone_77(ptr noundef %0, ptr noundef %1) local_unnamed_addr #0 {
  %3 = icmp eq ptr %1, null
  br i1 %3, label %ubrk_safeClone_77.exit, label %4

4:                                                ; preds = %2
  %5 = load i32, ptr %1, align 4, !tbaa !3
  %6 = icmp slt i32 %5, 1
  br i1 %6, label %7, label %ubrk_safeClone_77.exit

7:                                                ; preds = %4
  %8 = icmp eq ptr %0, null
  br i1 %8, label %.sink.split.i, label %9

9:                                                ; preds = %7
  %10 = load ptr, ptr %0, align 8, !tbaa !7
  %11 = getelementptr inbounds nuw i8, ptr %10, i64 32
  %12 = load ptr, ptr %11, align 8
  %13 = tail call noundef ptr %12(ptr noundef nonnull align 8 dereferenceable(32) %0)
  %14 = icmp eq ptr %13, null
  br i1 %14, label %.sink.split.i, label %ubrk_safeClone_77.exit

.sink.split.i:                                    ; preds = %9, %7
  %.sink.i = phi i32 [ 1, %7 ], [ 7, %9 ]
  store i32 %.sink.i, ptr %1, align 4, !tbaa !3
  br label %ubrk_safeClone_77.exit

ubrk_safeClone_77.exit:                           ; preds = %2, %4, %9, %.sink.split.i
  %.0.i = phi ptr [ null, %4 ], [ null, %2 ], [ null, %.sink.split.i ], [ %13, %9 ]
  ret ptr %.0.i
}